target datalayout = "e-m:e-p270:32:32-p271:32:32-p272:64:64-i64:64-i128:128-f80:128-n8:16:32:64-S128"
target triple = "x86_64-pc-linux-gnu"

%"class.ozz::options::Option" = type { ptr, ptr, ptr, i8, i8, ptr }

; Function Attrs: mustprogress nounwind uwtable
define linkonce_odr dso_local noundef ptr @_ZNK3ozz7options6Option4nameEv(ptr noundef nonnull align 8 dereferenceable(40) %0) #6 comdat align 2 {
  %2 = alloca ptr, align 8
  store ptr %0, ptr %2, align 8, !tbaa !26
  %3 = load ptr, ptr %2, align 8
  %4 = getelementptr inbounds nuw %"class.ozz::options::Option", ptr %3, i32 0, i32 1
  %5 = load ptr, ptr %4, align 8, !tbaa !64
  ret ptr %5
}

; Function Attrs: mustprogress nounwind uwtable
define linkonce_odr dso_local noundef zeroext i1 @_ZNK3ozz7options6Option8requiredEv(ptr noundef nonnull align 8 dereferenceable(40) %0) #6 comdat align 2 {
  %2 = alloca ptr, align 8
  store ptr %0, ptr %2, align 8, !tbaa !26
  %3 = load ptr, ptr %2, align 8
  %4 = getelementptr inbounds nuw %"class.ozz::options::Option", ptr %3, i32 0, i32 3
  %5 = load i8, ptr %4, align 8, !tbaa !66, !range !14, !noundef !15
  %6 = trunc i8 %5 to i1
  ret i1 %6
}

; Function Attrs: mustprogress nounwind uwtable
define internal noundef zeroext i1 @_ZN3ozz7options12_GLOBAL__N_112sort_optionsEPNS0_6OptionES3_(ptr noundef %0, ptr noundef %1) #6 {
  %3 = alloca ptr, align 8
  %4 = alloca ptr, align 8
  store ptr %0, ptr %3, align 8, !tbaa !26
  store ptr %1, ptr %4, align 8, !tbaa !26
  %5 = load ptr, ptr %3, align 8, !tbaa !26
  %6 = call noundef zeroext i1 @_ZNK3ozz7options6Option8requiredEv(ptr noundef nonnull align 8 dereferenceable(40) %5)
  br i1 %6, label %7, label %10

7:                                                ; preds = %2
  %8 = load ptr, ptr %4, align 8, !tbaa !26
  %9 = call noundef zeroext i1 @_ZNK3ozz7options6Option8requiredEv(ptr noundef nonnull align 8 dereferenceable(40) %8)
  br i1 %9, label %10, label %27

10:                                               ; preds = %7, %2
  %11 = load ptr, ptr %3, align 8, !tbaa !26
  %12 = call noundef zeroext i1 @_ZNK3ozz7options6Option8requiredEv(ptr noundef nonnull align 8 dereferenceable(40) %11)
  %13 = zext i1 %12 to i32
  %14 = load ptr, ptr %4, align 8, !tbaa !26
  %15 = call noundef zeroext i1 @_ZNK3ozz7options6Option8requiredEv(ptr noundef nonnull align 8 dereferenceable(40) %14)
  %16 = zext i1 %15 to i32
  %17 = icmp eq i32 %13, %16
  br i1 %17, label %18, label %25

18:                                               ; preds = %10
  %19 = load ptr, ptr %3, align 8, !tbaa !26
  %20 = call noundef ptr @_ZNK3ozz7options6Option4nameEv(ptr noundef nonnull align 8 dereferenceable(40) %19)
  %21 = load ptr, ptr %4, align 8, !tbaa !26
  %22 = call noundef ptr @_ZNK3ozz7options6Option4nameEv(ptr noundef nonnull align 8 dereferenceable(40) %21)
  %23 = call i32 @strcmp(ptr noundef %20, ptr noundef %22) #20
  %24 = icmp slt i32 %23, 0
  br label %25

25:                                               ; preds = %18, %10
  %26 = phi i1 [ false, %10 ], [ %24, %18 ]
  br label %27

27:                                               ; preds = %25, %7
  %28 = phi i1 [ true, %7 ], [ %26, %25 ]
  ret i1 %28
}