; Function Attrs: mustprogress nofree nounwind willreturn memory(read, inaccessiblemem: none) uwtable
define internal noundef zeroext i1 @_ZN3ozz7options12_GLOBAL__N_112sort_optionsEPNS0_6OptionES3_(ptr noundef readonly captures(none) %0, ptr noundef readonly captures(none) %1) #17 {
  %3 = getelementptr inbounds nuw i8, ptr %0, i64 24
  %4 = load i8, ptr %3, align 8, !tbaa !12, !range !73, !noundef !74
  %5 = trunc nuw i8 %4 to i1
  %6 = getelementptr inbounds nuw i8, ptr %1, i64 24
  %7 = load i8, ptr %6, align 8, !tbaa !12, !range !73
  br i1 %5, label %8, label %._crit_edge

8:                                                ; preds = %2
  %9 = trunc nuw i8 %7 to i1
  br i1 %9, label %._crit_edge, label %18

._crit_edge:                                      ; preds = %2, %8
  %10 = phi i8 [ 1, %8 ], [ %7, %2 ]
  %.not = icmp eq i8 %4, %10
  br i1 %.not, label %11, label %18

11:                                               ; preds = %._crit_edge
  %12 = getelementptr inbounds nuw i8, ptr %0, i64 8
  %13 = load ptr, ptr %12, align 8, !tbaa !4
  %14 = getelementptr inbounds nuw i8, ptr %1, i64 8
  %15 = load ptr, ptr %14, align 8, !tbaa !4
  %16 = tail call i32 @strcmp(ptr noundef nonnull dereferenceable(1) %13, ptr noundef nonnull dereferenceable(1) %15) #31
  %17 = icmp slt i32 %16, 0
  br label %18

18:                                               ; preds = %._crit_edge, %11, %8
  %19 = phi i1 [ true, %8 ], [ false, %._crit_edge ], [ %17, %11 ]
  ret i1 %19
}